; Function Attrs: nounwind uwtable
define internal ptr @aes_128_cbc_hmac_sha1_newctx(ptr noundef %0) #0 {
  %2 = tail call i32 @ossl_prov_is_running() #4
  %.not.i = icmp eq i32 %2, 0
  br i1 %.not.i, label %aes_cbc_hmac_sha1_newctx.exit, label %3

3:                                                ; preds = %1
  %4 = tail call noalias ptr @CRYPTO_zalloc(i64 noundef 792, ptr noundef nonnull @.str, i32 noundef 329) #4
  %.not9.i = icmp eq ptr %4, null
  br i1 %.not9.i, label %aes_cbc_hmac_sha1_newctx.exit, label %5

5:                                                ; preds = %3
  %6 = tail call ptr @ossl_prov_cipher_hw_aes_cbc_hmac_sha1() #4
  tail call void @ossl_cipher_generic_initkey(ptr noundef nonnull %4, i64 noundef range(i64 128, 257) 128, i64 noundef 128, i64 noundef 128, i32 noundef 2, i64 noundef 9, ptr noundef %6, ptr noundef %0) #4
  %7 = getelementptr inbounds nuw i8, ptr %4, i64 168
  %8 = load ptr, ptr %7, align 8, !tbaa !3
  %9 = getelementptr inbounds nuw i8, ptr %4, i64 464
  store ptr %8, ptr %9, align 8, !tbaa !16
  br label %aes_cbc_hmac_sha1_newctx.exit

aes_cbc_hmac_sha1_newctx.exit:                    ; preds = %1, %3, %5
  %.0.i = phi ptr [ null, %1 ], [ %4, %5 ], [ null, %3 ]
  ret ptr %.0.i
}